; Function Attrs: mustprogress uwtable
define dso_local void @_ZN4Luau12TypeChecker25visitEPNS_13AstStatRepeatE(ptr noundef nonnull align 8 dereferenceable(784) %0, ptr noundef readonly captures(none) %1) local_unnamed_addr #5 align 2 personality ptr @__gxx_personality_v0 {
  %3 = alloca %"class.std::optional.306", align 8
  %4 = getelementptr inbounds nuw i8, ptr %1, i64 40
  %5 = load ptr, ptr %4, align 8, !tbaa !272
  call void @llvm.lifetime.start.p0(i64 24, ptr nonnull %3) #33
  call void @_ZN4Luau12TypeChecker29pushStackEPNS_7AstNodeE(ptr dead_on_unwind nonnull writable sret(%"class.std::optional.306") align 8 %3, ptr noundef nonnull align 8 dereferenceable(784) %0, ptr noundef %5)
  %6 = getelementptr inbounds nuw i8, ptr %5, i64 32
  %7 = load ptr, ptr %6, align 8, !tbaa !77
  %8 = getelementptr inbounds nuw i8, ptr %5, i64 40
  %9 = load i64, ptr %8, align 8, !tbaa !80
  %10 = getelementptr inbounds nuw ptr, ptr %7, i64 %9
  %.not13.i = icmp eq i64 %9, 0
  br i1 %.not13.i, label %._crit_edge.i, label %.lr.ph.i

._crit_edge.i:                                    ; preds = %21, %2
  %11 = getelementptr inbounds nuw i8, ptr %3, i64 16
  %12 = load i8, ptr %11, align 8, !tbaa !81, !range !83, !noundef !84
  %13 = trunc nuw i8 %12 to i1
  br i1 %13, label %14, label %_ZN4Luau12TypeChecker25visitEPNS_12AstStatBlockE.exit

14:                                               ; preds = %._crit_edge.i
  %15 = load ptr, ptr %3, align 8, !tbaa !85
  %.not.i.i.i.i.i.i = icmp eq ptr %15, null
  br i1 %.not.i.i.i.i.i.i, label %_ZN4Luau12TypeChecker25visitEPNS_12AstStatBlockE.exit, label %16

16:                                               ; preds = %14
  %17 = getelementptr inbounds nuw i8, ptr %15, i64 8
  %18 = load ptr, ptr %17, align 8, !tbaa !90
  %19 = getelementptr inbounds i8, ptr %18, i64 -8
  store ptr %19, ptr %17, align 8, !tbaa !90
  br label %_ZN4Luau12TypeChecker25visitEPNS_12AstStatBlockE.exit

.lr.ph.i:                                         ; preds = %2, %21
  %.014.i = phi ptr [ %22, %21 ], [ %7, %2 ]
  %20 = load ptr, ptr %.014.i, align 8, !tbaa !93
  invoke void @_ZN4Luau12TypeChecker25visitEPNS_7AstStatE(ptr noundef nonnull align 8 dereferenceable(784) %0, ptr noundef %20)
          to label %21 unwind label %23

21:                                               ; preds = %.lr.ph.i
  %22 = getelementptr inbounds nuw i8, ptr %.014.i, i64 8
  %.not.i = icmp eq ptr %22, %10
  br i1 %.not.i, label %._crit_edge.i, label %.lr.ph.i

23:                                               ; preds = %.lr.ph.i
  %24 = landingpad { ptr, i32 }
          cleanup
  %25 = getelementptr inbounds nuw i8, ptr %3, i64 16
  %26 = load i8, ptr %25, align 8, !tbaa !81, !range !83, !noundef !84
  %27 = trunc nuw i8 %26 to i1
  br i1 %27, label %28, label %_ZNSt14_Optional_baseIN4Luau11StackPusherELb0ELb0EED2Ev.exit12.i

28:                                               ; preds = %23
  %29 = load ptr, ptr %3, align 8, !tbaa !85
  %.not.i.i.i.i.i11.i = icmp eq ptr %29, null
  br i1 %.not.i.i.i.i.i11.i, label %_ZNSt14_Optional_baseIN4Luau11StackPusherELb0ELb0EED2Ev.exit12.i, label %30

30:                                               ; preds = %28
  %31 = getelementptr inbounds nuw i8, ptr %29, i64 8
  %32 = load ptr, ptr %31, align 8, !tbaa !90
  %33 = getelementptr inbounds i8, ptr %32, i64 -8
  store ptr %33, ptr %31, align 8, !tbaa !90
  br label %_ZNSt14_Optional_baseIN4Luau11StackPusherELb0ELb0EED2Ev.exit12.i

_ZNSt14_Optional_baseIN4Luau11StackPusherELb0ELb0EED2Ev.exit12.i: ; preds = %30, %28, %23
  call void @llvm.lifetime.end.p0(i64 24, ptr nonnull %3) #33
  resume { ptr, i32 } %24

_ZN4Luau12TypeChecker25visitEPNS_12AstStatBlockE.exit: ; preds = %._crit_edge.i, %14, %16
  call void @llvm.lifetime.end.p0(i64 24, ptr nonnull %3) #33
  %34 = getelementptr inbounds nuw i8, ptr %1, i64 32
  %35 = load ptr, ptr %34, align 8, !tbaa !270
  tail call void @_ZN4Luau12TypeChecker25visitEPNS_7AstExprENS_12ValueContextE(ptr noundef nonnull align 8 dereferenceable(784) %0, ptr noundef %35, i32 noundef 1)
  ret void
}